; ModuleID = '14/735.c'
source_filename = "14/735.c"
target datalayout = "e-m:e-p270:32:32-p271:32:32-p272:64:64-i64:64-f80:128-n8:16:32:64-S128"
target triple = "x86_64-pc-linux-gnu"

%struct.student = type { i32, i32, i32, i32 }

@.str = private unnamed_addr constant [3 x i8] c"%d\00", align 1
@.str.1 = private unnamed_addr constant [7 x i8] c"%d%d%d\00", align 1
@stu = common dso_local global [100000 x %struct.student] zeroinitializer, align 16
@.str.2 = private unnamed_addr constant [19 x i8] c"%d %d\0A%d %d\0A%d %d\0A\00", align 1

; Function Attrs: noinline nounwind uwtable
define dso_local i32 @main(i32 %0, i8** %1) #0 {
  %3 = alloca i32, align 4
  %4 = alloca i32, align 4
  %5 = alloca i8**, align 8
  %6 = alloca i32, align 4
  %7 = alloca i32, align 4
  %8 = alloca i32, align 4
  %9 = alloca i32, align 4
  %10 = alloca i32, align 4
  %11 = alloca i32, align 4
  %12 = alloca i32, align 4
  %13 = alloca i32, align 4
  store i32 0, i32* %3, align 4
  store i32 %0, i32* %4, align 4
  store i8** %1, i8*** %5, align 8
  store i32 0, i32* %8, align 4
  store i32 0, i32* %9, align 4
  store i32 0, i32* %10, align 4
  %14 = call i32 (i8*, ...) @__isoc99_scanf(i8* getelementptr inbounds ([3 x i8], [3 x i8]* @.str, i64 0, i64 0), i32* %6)
  store i32 0, i32* %7, align 4
  br label %15

15:                                               ; preds = %48, %2
  %16 = load i32, i32* %7, align 4
  %17 = load i32, i32* %6, align 4
  %18 = icmp slt i32 %16, %17
  br i1 %18, label %19, label %51

19:                                               ; preds = %15
  %20 = load i32, i32* %7, align 4
  %21 = sext i32 %20 to i64
  %22 = getelementptr inbounds [100000 x %struct.student], [100000 x %struct.student]* @stu, i64 0, i64 %21
  %23 = getelementptr inbounds %struct.student, %struct.student* %22, i32 0, i32 0
  %24 = load i32, i32* %7, align 4
  %25 = sext i32 %24 to i64
  %26 = getelementptr inbounds [100000 x %struct.student], [100000 x %struct.student]* @stu, i64 0, i64 %25
  %27 = getelementptr inbounds %struct.student, %struct.student* %26, i32 0, i32 1
  %28 = load i32, i32* %7, align 4
  %29 = sext i32 %28 to i64
  %30 = getelementptr inbounds [100000 x %struct.student], [100000 x %struct.student]* @stu, i64 0, i64 %29
  %31 = getelementptr inbounds %struct.student, %struct.student* %30, i32 0, i32 2
  %32 = call i32 (i8*, ...) @__isoc99_scanf(i8* getelementptr inbounds ([7 x i8], [7 x i8]* @.str.1, i64 0, i64 0), i32* %23, i32* %27, i32* %31)
  %33 = load i32, i32* %7, align 4
  %34 = sext i32 %33 to i64
  %35 = getelementptr inbounds [100000 x %struct.student], [100000 x %struct.student]* @stu, i64 0, i64 %34
  %36 = getelementptr inbounds %struct.student, %struct.student* %35, i32 0, i32 1
  %37 = load i32, i32* %36, align 4
  %38 = load i32, i32* %7, align 4
  %39 = sext i32 %38 to i64
  %40 = getelementptr inbounds [100000 x %struct.student], [100000 x %struct.student]* @stu, i64 0, i64 %39
  %41 = getelementptr inbounds %struct.student, %struct.student* %40, i32 0, i32 2
  %42 = load i32, i32* %41, align 8
  %43 = add nsw i32 %37, %42
  %44 = load i32, i32* %7, align 4
  %45 = sext i32 %44 to i64
  %46 = getelementptr inbounds [100000 x %struct.student], [100000 x %struct.student]* @stu, i64 0, i64 %45
  %47 = getelementptr inbounds %struct.student, %struct.student* %46, i32 0, i32 3
  store i32 %43, i32* %47, align 4
  br label %48

48:                                               ; preds = %19
  %49 = load i32, i32* %7, align 4
  %50 = add nsw i32 %49, 1
  store i32 %50, i32* %7, align 4
  br label %15

51:                                               ; preds = %15
  store i32 0, i32* %7, align 4
  br label %52

52:                                               ; preds = %72, %51
  %53 = load i32, i32* %7, align 4
  %54 = load i32, i32* %6, align 4
  %55 = icmp slt i32 %53, %54
  br i1 %55, label %56, label %75

56:                                               ; preds = %52
  %57 = load i32, i32* %8, align 4
  %58 = load i32, i32* %7, align 4
  %59 = sext i32 %58 to i64
  %60 = getelementptr inbounds [100000 x %struct.student], [100000 x %struct.student]* @stu, i64 0, i64 %59
  %61 = getelementptr inbounds %struct.student, %struct.student* %60, i32 0, i32 3
  %62 = load i32, i32* %61, align 4
  %63 = icmp slt i32 %57, %62
  br i1 %63, label %64, label %71

64:                                               ; preds = %56
  %65 = load i32, i32* %7, align 4
  %66 = sext i32 %65 to i64
  %67 = getelementptr inbounds [100000 x %struct.student], [100000 x %struct.student]* @stu, i64 0, i64 %66
  %68 = getelementptr inbounds %struct.student, %struct.student* %67, i32 0, i32 3
  %69 = load i32, i32* %68, align 4
  store i32 %69, i32* %8, align 4
  %70 = load i32, i32* %7, align 4
  store i32 %70, i32* %11, align 4
  br label %71

71:                                               ; preds = %64, %56
  br label %72

72:                                               ; preds = %71
  %73 = load i32, i32* %7, align 4
  %74 = add nsw i32 %73, 1
  store i32 %74, i32* %7, align 4
  br label %52

75:                                               ; preds = %52
  store i32 0, i32* %7, align 4
  br label %76

76:                                               ; preds = %100, %75
  %77 = load i32, i32* %7, align 4
  %78 = load i32, i32* %6, align 4
  %79 = icmp slt i32 %77, %78
  br i1 %79, label %80, label %103

80:                                               ; preds = %76
  %81 = load i32, i32* %9, align 4
  %82 = load i32, i32* %7, align 4
  %83 = sext i32 %82 to i64
  %84 = getelementptr inbounds [100000 x %struct.student], [100000 x %struct.student]* @stu, i64 0, i64 %83
  %85 = getelementptr inbounds %struct.student, %struct.student* %84, i32 0, i32 3
  %86 = load i32, i32* %85, align 4
  %87 = icmp slt i32 %81, %86
  br i1 %87, label %88, label %99

88:                                               ; preds = %80
  %89 = load i32, i32* %7, align 4
  %90 = load i32, i32* %11, align 4
  %91 = icmp ne i32 %89, %90
  br i1 %91, label %92, label %99

92:                                               ; preds = %88
  %93 = load i32, i32* %7, align 4
  %94 = sext i32 %93 to i64
  %95 = getelementptr inbounds [100000 x %struct.student], [100000 x %struct.student]* @stu, i64 0, i64 %94
  %96 = getelementptr inbounds %struct.student, %struct.student* %95, i32 0, i32 3
  %97 = load i32, i32* %96, align 4
  store i32 %97, i32* %9, align 4
  %98 = load i32, i32* %7, align 4
  store i32 %98, i32* %12, align 4
  br label %99

99:                                               ; preds = %92, %88, %80
  br label %100

100:                                              ; preds = %99
  %101 = load i32, i32* %7, align 4
  %102 = add nsw i32 %101, 1
  store i32 %102, i32* %7, align 4
  br label %76

103:                                              ; preds = %76
  store i32 0, i32* %7, align 4
  br label %104

104:                                              ; preds = %132, %103
  %105 = load i32, i32* %7, align 4
  %106 = load i32, i32* %6, align 4
  %107 = icmp slt i32 %105, %106
  br i1 %107, label %108, label %135

108:                                              ; preds = %104
  %109 = load i32, i32* %10, align 4
  %110 = load i32, i32* %7, align 4
  %111 = sext i32 %110 to i64
  %112 = getelementptr inbounds [100000 x %struct.student], [100000 x %struct.student]* @stu, i64 0, i64 %111
  %113 = getelementptr inbounds %struct.student, %struct.student* %112, i32 0, i32 3
  %114 = load i32, i32* %113, align 4
  %115 = icmp slt i32 %109, %114
  br i1 %115, label %116, label %131

116:                                              ; preds = %108
  %117 = load i32, i32* %7, align 4
  %118 = load i32, i32* %11, align 4
  %119 = icmp ne i32 %117, %118
  br i1 %119, label %120, label %131

120:                                              ; preds = %116
  %121 = load i32, i32* %7, align 4
  %122 = load i32, i32* %12, align 4
  %123 = icmp ne i32 %121, %122
  br i1 %123, label %124, label %131

124:                                              ; preds = %120
  %125 = load i32, i32* %7, align 4
  %126 = sext i32 %125 to i64
  %127 = getelementptr inbounds [100000 x %struct.student], [100000 x %struct.student]* @stu, i64 0, i64 %126
  %128 = getelementptr inbounds %struct.student, %struct.student* %127, i32 0, i32 3
  %129 = load i32, i32* %128, align 4
  store i32 %129, i32* %10, align 4
  %130 = load i32, i32* %7, align 4
  store i32 %130, i32* %13, align 4
  br label %131

131:                                              ; preds = %124, %120, %116, %108
  br label %132

132:                                              ; preds = %131
  %133 = load i32, i32* %7, align 4
  %134 = add nsw i32 %133, 1
  store i32 %134, i32* %7, align 4
  br label %104

135:                                              ; preds = %104
  %136 = load i32, i32* %11, align 4
  %137 = sext i32 %136 to i64
  %138 = getelementptr inbounds [100000 x %struct.student], [100000 x %struct.student]* @stu, i64 0, i64 %137
  %139 = getelementptr inbounds %struct.student, %struct.student* %138, i32 0, i32 0
  %140 = load i32, i32* %139, align 16
  %141 = load i32, i32* %11, align 4
  %142 = sext i32 %141 to i64
  %143 = getelementptr inbounds [100000 x %struct.student], [100000 x %struct.student]* @stu, i64 0, i64 %142
  %144 = getelementptr inbounds %struct.student, %struct.student* %143, i32 0, i32 3
  %145 = load i32, i32* %144, align 4
  %146 = load i32, i32* %12, align 4
  %147 = sext i32 %146 to i64
  %148 = getelementptr inbounds [100000 x %struct.student], [100000 x %struct.student]* @stu, i64 0, i64 %147
  %149 = getelementptr inbounds %struct.student, %struct.student* %148, i32 0, i32 0
  %150 = load i32, i32* %149, align 16
  %151 = load i32, i32* %12, align 4
  %152 = sext i32 %151 to i64
  %153 = getelementptr inbounds [100000 x %struct.student], [100000 x %struct.student]* @stu, i64 0, i64 %152
  %154 = getelementptr inbounds %struct.student, %struct.student* %153, i32 0, i32 3
  %155 = load i32, i32* %154, align 4
  %156 = load i32, i32* %13, align 4
  %157 = sext i32 %156 to i64
  %158 = getelementptr inbounds [100000 x %struct.student], [100000 x %struct.student]* @stu, i64 0, i64 %157
  %159 = getelementptr inbounds %struct.student, %struct.student* %158, i32 0, i32 0
  %160 = load i32, i32* %159, align 16
  %161 = load i32, i32* %13, align 4
  %162 = sext i32 %161 to i64
  %163 = getelementptr inbounds [100000 x %struct.student], [100000 x %struct.student]* @stu, i64 0, i64 %162
  %164 = getelementptr inbounds %struct.student, %struct.student* %163, i32 0, i32 3
  %165 = load i32, i32* %164, align 4
  %166 = call i32 (i8*, ...) @printf(i8* getelementptr inbounds ([19 x i8], [19 x i8]* @.str.2, i64 0, i64 0), i32 %140, i32 %145, i32 %150, i32 %155, i32 %160, i32 %165)
  ret i32 0
}

declare dso_local i32 @__isoc99_scanf(i8*, ...) #1

declare dso_local i32 @printf(i8*, ...) #1


!llvm.module.flags = !{!0}
!llvm.ident = !{!1}

!0 = !{i32 1, !"wchar_size", i32 4}
!1 = !{!"clang version 10.0.0-4ubuntu1 "}
